target datalayout = "e-m:e-p270:32:32-p271:32:32-p272:64:64-i64:64-i128:128-f80:128-n8:16:32:64-S128"
target triple = "x86_64-pc-linux-gnu"

%struct.z_stream_s = type { ptr, i32, i64, ptr, i32, i64, ptr, ptr, ptr, ptr, ptr, i32, i64, i64 }
%struct.internal_state = type { ptr, i32, ptr, i64, ptr, i32, i32, ptr, i32, i8, i32, i32, i32, i32, ptr, i64, ptr, ptr, i32, i32, i32, i32, i32, i64, i32, i32, i32, i32, i32, i32, i32, i32, i32, i32, i32, i32, i32, [573 x %struct.ct_data_s], [61 x %struct.ct_data_s], [39 x %struct.ct_data_s], %struct.tree_desc_s, %struct.tree_desc_s, %struct.tree_desc_s, [16 x i16], [573 x i32], i32, i32, [573 x i8], ptr, i32, i32, ptr, i64, i64, i32, i32, i16, i32, i64 }
%struct.ct_data_s = type { %union.anon, %union.anon.0 }
%union.anon = type { i16 }
%union.anon.0 = type { i16 }
%struct.tree_desc_s = type { ptr, i32, ptr }

; Function Attrs: nounwind uwtable
define i32 @deflatePending(ptr noundef %0, ptr noundef %1, ptr noundef %2) #0 {
  %4 = alloca i32, align 4
  %5 = alloca ptr, align 8
  %6 = alloca ptr, align 8
  %7 = alloca ptr, align 8
  store ptr %0, ptr %5, align 8, !tbaa !3
  store ptr %1, ptr %6, align 8, !tbaa !91
  store ptr %2, ptr %7, align 8, !tbaa !91
  %8 = load ptr, ptr %5, align 8, !tbaa !3
  %9 = icmp eq ptr %8, null
  br i1 %9, label %15, label %10

10:                                               ; preds = %3
  %11 = load ptr, ptr %5, align 8, !tbaa !3
  %12 = getelementptr inbounds nuw %struct.z_stream_s, ptr %11, i32 0, i32 7
  %13 = load ptr, ptr %12, align 8, !tbaa !21
  %14 = icmp eq ptr %13, null
  br i1 %14, label %15, label %16

15:                                               ; preds = %10, %3
  store i32 -2, ptr %4, align 4
  br label %37

16:                                               ; preds = %10
  %17 = load ptr, ptr %6, align 8, !tbaa !91
  %18 = icmp ne ptr %17, null
  br i1 %18, label %19, label %26

19:                                               ; preds = %16
  %20 = load ptr, ptr %5, align 8, !tbaa !3
  %21 = getelementptr inbounds nuw %struct.z_stream_s, ptr %20, i32 0, i32 7
  %22 = load ptr, ptr %21, align 8, !tbaa !21
  %23 = getelementptr inbounds nuw %struct.internal_state, ptr %22, i32 0, i32 5
  %24 = load i32, ptr %23, align 8, !tbaa !78
  %25 = load ptr, ptr %6, align 8, !tbaa !91
  store i32 %24, ptr %25, align 4, !tbaa !8
  br label %26

26:                                               ; preds = %19, %16
  %27 = load ptr, ptr %7, align 8, !tbaa !91
  %28 = icmp ne ptr %27, null
  br i1 %28, label %29, label %36

29:                                               ; preds = %26
  %30 = load ptr, ptr %5, align 8, !tbaa !3
  %31 = getelementptr inbounds nuw %struct.z_stream_s, ptr %30, i32 0, i32 7
  %32 = load ptr, ptr %31, align 8, !tbaa !21
  %33 = getelementptr inbounds nuw %struct.internal_state, ptr %32, i32 0, i32 57
  %34 = load i32, ptr %33, align 4, !tbaa !93
  %35 = load ptr, ptr %7, align 8, !tbaa !91
  store i32 %34, ptr %35, align 4, !tbaa !8
  br label %36

36:                                               ; preds = %29, %26
  store i32 0, ptr %4, align 4
  br label %37

37:                                               ; preds = %36, %15
  %38 = load i32, ptr %4, align 4
  ret i32 %38
}