; Function Attrs: mustprogress nofree norecurse nosync nounwind willreturn memory(read, argmem: readwrite, inaccessiblemem: none) uwtable
define range(i32 -2, 1) i32 @deflatePending(ptr noundef readonly %0, ptr noundef writeonly %1, ptr noundef writeonly %2) local_unnamed_addr #4 {
  %4 = icmp eq ptr %0, null
  br i1 %4, label %17, label %5

5:                                                ; preds = %3
  %6 = getelementptr inbounds nuw i8, ptr %0, i64 56
  %7 = load ptr, ptr %6, align 8, !tbaa !16
  %8 = icmp eq ptr %7, null
  br i1 %8, label %17, label %9

9:                                                ; preds = %5
  %.not = icmp eq ptr %1, null
  br i1 %.not, label %13, label %10

10:                                               ; preds = %9
  %11 = getelementptr inbounds nuw i8, ptr %7, i64 40
  %12 = load i32, ptr %11, align 8, !tbaa !51
  store i32 %12, ptr %1, align 4, !tbaa !84
  br label %13

13:                                               ; preds = %10, %9
  %.not12 = icmp eq ptr %2, null
  br i1 %.not12, label %17, label %14

14:                                               ; preds = %13
  %15 = getelementptr inbounds nuw i8, ptr %7, i64 5924
  %16 = load i32, ptr %15, align 4, !tbaa !85
  store i32 %16, ptr %2, align 4, !tbaa !84
  br label %17

17:                                               ; preds = %13, %14, %3, %5
  %.0 = phi i32 [ -2, %5 ], [ -2, %3 ], [ 0, %14 ], [ 0, %13 ]
  ret i32 %.0
}